; Function Attrs: mustprogress uwtable
define void @_ZN12FunnelAction15triggerCallbackEv(ptr nocapture noundef nonnull readonly align 8 dereferenceable(112) %0) unnamed_addr #0 align 2 {
  %2 = getelementptr inbounds i8, ptr %0, i64 64
  %3 = load ptr, ptr %2, align 8
  %.not = icmp eq ptr %3, null
  br i1 %.not, label %7, label %4

4:                                                ; preds = %1
  %5 = getelementptr inbounds i8, ptr %0, i64 72
  %6 = load ptr, ptr %5, align 8
  tail call void %3(ptr noundef %6)
  br label %7

7:                                                ; preds = %4, %1
  ret void
}